; Function Attrs: mustprogress uwtable
define void @_ZN2cv3hal14cartToPolar64fEPKdS2_PdS3_ib(ptr noundef readonly captures(none) %0, ptr noundef readonly captures(none) %1, ptr noundef writeonly captures(none) %2, ptr noundef writeonly captures(none) %3, i32 noundef %4, i1 noundef zeroext %5) local_unnamed_addr #0 personality ptr @__gxx_personality_v0 {
  %7 = alloca %"class.cv::utils::trace::details::Region", align 8
  call void @llvm.lifetime.start.p0(i64 16, ptr nonnull %7) #12
  call void @_ZN2cv5utils5trace7details6RegionC1ERKNS3_21LocationStaticStorageE(ptr noundef nonnull align 8 dereferenceable(12) %7, ptr noundef nonnull align 8 dereferenceable(32) @_ZZN2cv3hal14cartToPolar64fEPKdS2_PdS3_ibE24__cv_trace_location_fn24)
  invoke void @_ZN2cv3hal12cpu_baseline14cartToPolar64fEPKdS3_PdS4_ib(ptr noundef %0, ptr noundef %1, ptr noundef %2, ptr noundef %3, i32 noundef %4, i1 noundef zeroext %5)
          to label %.critedge unwind label %14

.critedge:                                        ; preds = %6
  %8 = getelementptr inbounds nuw i8, ptr %7, i64 8
  %9 = load i32, ptr %8, align 8, !tbaa !9
  %.not.i = icmp eq i32 %9, 0
  br i1 %.not.i, label %_ZN2cv5utils5trace7details6RegionD2Ev.exit, label %10

10:                                               ; preds = %.critedge
  invoke void @_ZN2cv5utils5trace7details6Region7destroyEv(ptr noundef nonnull align 8 dereferenceable(12) %7)
          to label %_ZN2cv5utils5trace7details6RegionD2Ev.exit unwind label %11

11:                                               ; preds = %10
  %12 = landingpad { ptr, i32 }
          catch ptr null
  %13 = extractvalue { ptr, i32 } %12, 0
  call void @__clang_call_terminate(ptr %13) #13
  unreachable

_ZN2cv5utils5trace7details6RegionD2Ev.exit:       ; preds = %.critedge, %10
  call void @llvm.lifetime.end.p0(i64 16, ptr nonnull %7) #12
  ret void

14:                                               ; preds = %6
  %15 = landingpad { ptr, i32 }
          cleanup
  call void @_ZN2cv5utils5trace7details6RegionD2Ev(ptr noundef nonnull align 8 dereferenceable(12) %7) #12
  call void @llvm.lifetime.end.p0(i64 16, ptr nonnull %7) #12
  resume { ptr, i32 } %15
}